target datalayout = "e-m:e-p270:32:32-p271:32:32-p272:64:64-i64:64-i128:128-f80:128-n8:16:32:64-S128"
target triple = "x86_64-pc-linux-gnu"

%struct._object = type { %union.anon, ptr }
%union.anon = type { i64 }
%struct.anon = type { i32, i32 }
%struct.Py_buffer = type { ptr, ptr, i64, i64, i32, i32, ptr, ptr, ptr, ptr, ptr }
%struct.UnpicklerObject = type { %struct._object, ptr, ptr, i64, i64, ptr, ptr, %struct.Py_buffer, ptr, ptr, i64, i64, i64, ptr, ptr, ptr, ptr, ptr, ptr, ptr, ptr, i64, i64, i32, i32 }

; Function Attrs: alwaysinline nounwind uwtable
define internal i32 @_Py_IsImmortal(ptr noundef %0) #4 {
  %2 = alloca ptr, align 8
  store ptr %0, ptr %2, align 8, !tbaa !3
  %3 = load ptr, ptr %2, align 8, !tbaa !3
  %4 = getelementptr inbounds nuw %struct._object, ptr %3, i32 0, i32 0
  %5 = getelementptr inbounds nuw %struct.anon, ptr %4, i32 0, i32 0
  %6 = load i32, ptr %5, align 8, !tbaa !63
  %7 = icmp slt i32 %6, 0
  %8 = zext i1 %7 to i32
  ret i32 %8
}

; Function Attrs: alwaysinline nounwind uwtable
define internal void @Py_INCREF(ptr noundef %0) #4 {
  %2 = alloca ptr, align 8
  %3 = alloca i32, align 4
  %4 = alloca i32, align 4
  store ptr %0, ptr %2, align 8, !tbaa !3
  call void @llvm.lifetime.start.p0(i64 4, ptr %3) #10
  %5 = load ptr, ptr %2, align 8, !tbaa !3
  %6 = getelementptr inbounds nuw %struct._object, ptr %5, i32 0, i32 0
  %7 = getelementptr inbounds nuw %struct.anon, ptr %6, i32 0, i32 0
  %8 = load i32, ptr %7, align 8, !tbaa !63
  store i32 %8, ptr %3, align 4, !tbaa !12
  %9 = load i32, ptr %3, align 4, !tbaa !12
  %10 = icmp slt i32 %9, 0
  br i1 %10, label %11, label %12

11:                                               ; preds = %1
  store i32 1, ptr %4, align 4
  br label %18

12:                                               ; preds = %1
  %13 = load i32, ptr %3, align 4, !tbaa !12
  %14 = add i32 %13, 1
  %15 = load ptr, ptr %2, align 8, !tbaa !3
  %16 = getelementptr inbounds nuw %struct._object, ptr %15, i32 0, i32 0
  %17 = getelementptr inbounds nuw %struct.anon, ptr %16, i32 0, i32 0
  store i32 %14, ptr %17, align 8, !tbaa !63
  store i32 0, ptr %4, align 4
  br label %18

18:                                               ; preds = %12, %11
  call void @llvm.lifetime.end.p0(i64 4, ptr %3) #10
  %19 = load i32, ptr %4, align 4
  switch i32 %19, label %21 [
    i32 0, label %20
    i32 1, label %20
  ]

20:                                               ; preds = %18, %18
  ret void

21:                                               ; preds = %18
  unreachable
}

; Function Attrs: alwaysinline nounwind uwtable
define internal void @Py_DECREF(ptr noundef %0) #4 {
  %2 = alloca ptr, align 8
  store ptr %0, ptr %2, align 8, !tbaa !3
  %3 = load ptr, ptr %2, align 8, !tbaa !3
  %4 = call i32 @_Py_IsImmortal(ptr noundef %3)
  %5 = icmp ne i32 %4, 0
  br i1 %5, label %6, label %7

6:                                                ; preds = %1
  br label %16

7:                                                ; preds = %1
  %8 = load ptr, ptr %2, align 8, !tbaa !3
  %9 = getelementptr inbounds nuw %struct._object, ptr %8, i32 0, i32 0
  %10 = getelementptr inbounds nuw %struct.anon, ptr %9, i32 0, i32 0
  %11 = load i32, ptr %10, align 8, !tbaa !63
  %12 = add i32 %11, -1
  store i32 %12, ptr %10, align 8, !tbaa !63
  %13 = icmp eq i32 %12, 0
  br i1 %13, label %14, label %16

14:                                               ; preds = %7
  %15 = load ptr, ptr %2, align 8, !tbaa !3
  call void @_Py_Dealloc(ptr noundef %15)
  br label %16

16:                                               ; preds = %6, %14, %7
  ret void
}

; Function Attrs: inlinehint nounwind uwtable
define internal ptr @_Py_NewRef(ptr noundef %0) #3 {
  %2 = alloca ptr, align 8
  store ptr %0, ptr %2, align 8, !tbaa !3
  %3 = load ptr, ptr %2, align 8, !tbaa !3
  call void @Py_INCREF(ptr noundef %3)
  %4 = load ptr, ptr %2, align 8, !tbaa !3
  ret ptr %4
}

; Function Attrs: nounwind uwtable
define internal i32 @_Unpickler_ResizeMemoList(ptr noundef %0, i64 noundef %1) #0 {
  %3 = alloca i32, align 4
  %4 = alloca ptr, align 8
  %5 = alloca i64, align 8
  %6 = alloca i64, align 8
  %7 = alloca ptr, align 8
  %8 = alloca i32, align 4
  store ptr %0, ptr %4, align 8, !tbaa !156
  store i64 %1, ptr %5, align 8, !tbaa !34
  call void @llvm.lifetime.start.p0(i64 8, ptr %6) #10
  call void @llvm.lifetime.start.p0(i64 8, ptr %7) #10
  %9 = load ptr, ptr %4, align 8, !tbaa !156
  %10 = getelementptr inbounds nuw %struct.UnpicklerObject, ptr %9, i32 0, i32 2
  %11 = load ptr, ptr %10, align 8, !tbaa !161
  store ptr %11, ptr %7, align 8, !tbaa !32
  %12 = load i64, ptr %5, align 8, !tbaa !34
  %13 = icmp ugt i64 %12, 1152921504606846975
  br i1 %13, label %14, label %15

14:                                               ; preds = %2
  br label %20

15:                                               ; preds = %2
  %16 = load ptr, ptr %7, align 8, !tbaa !32
  %17 = load i64, ptr %5, align 8, !tbaa !34
  %18 = mul i64 %17, 8
  %19 = call ptr @PyMem_Realloc(ptr noundef %16, i64 noundef %18)
  br label %20

20:                                               ; preds = %15, %14
  %21 = phi ptr [ null, %14 ], [ %19, %15 ]
  store ptr %21, ptr %7, align 8, !tbaa !32
  %22 = load ptr, ptr %7, align 8, !tbaa !32
  %23 = icmp eq ptr %22, null
  br i1 %23, label %24, label %26

24:                                               ; preds = %20
  %25 = call ptr @PyErr_NoMemory()
  store i32 -1, ptr %3, align 4
  store i32 1, ptr %8, align 4
  br label %50

26:                                               ; preds = %20
  %27 = load ptr, ptr %7, align 8, !tbaa !32
  %28 = load ptr, ptr %4, align 8, !tbaa !156
  %29 = getelementptr inbounds nuw %struct.UnpicklerObject, ptr %28, i32 0, i32 2
  store ptr %27, ptr %29, align 8, !tbaa !161
  %30 = load ptr, ptr %4, align 8, !tbaa !156
  %31 = getelementptr inbounds nuw %struct.UnpicklerObject, ptr %30, i32 0, i32 3
  %32 = load i64, ptr %31, align 8, !tbaa !162
  store i64 %32, ptr %6, align 8, !tbaa !34
  br label %33

33:                                               ; preds = %43, %26
  %34 = load i64, ptr %6, align 8, !tbaa !34
  %35 = load i64, ptr %5, align 8, !tbaa !34
  %36 = icmp ult i64 %34, %35
  br i1 %36, label %37, label %46

37:                                               ; preds = %33
  %38 = load ptr, ptr %4, align 8, !tbaa !156
  %39 = getelementptr inbounds nuw %struct.UnpicklerObject, ptr %38, i32 0, i32 2
  %40 = load ptr, ptr %39, align 8, !tbaa !161
  %41 = load i64, ptr %6, align 8, !tbaa !34
  %42 = getelementptr ptr, ptr %40, i64 %41
  store ptr null, ptr %42, align 8, !tbaa !3
  br label %43

43:                                               ; preds = %37
  %44 = load i64, ptr %6, align 8, !tbaa !34
  %45 = add i64 %44, 1
  store i64 %45, ptr %6, align 8, !tbaa !34
  br label %33, !llvm.loop !206

46:                                               ; preds = %33
  %47 = load i64, ptr %5, align 8, !tbaa !34
  %48 = load ptr, ptr %4, align 8, !tbaa !156
  %49 = getelementptr inbounds nuw %struct.UnpicklerObject, ptr %48, i32 0, i32 3
  store i64 %47, ptr %49, align 8, !tbaa !162
  store i32 0, ptr %3, align 4
  store i32 1, ptr %8, align 4
  br label %50

50:                                               ; preds = %46, %24
  call void @llvm.lifetime.end.p0(i64 8, ptr %7) #10
  call void @llvm.lifetime.end.p0(i64 8, ptr %6) #10
  %51 = load i32, ptr %3, align 4
  ret i32 %51
}

; Function Attrs: nounwind uwtable
define internal i32 @_Unpickler_MemoPut(ptr noundef %0, i64 noundef %1, ptr noundef %2) #0 {
  %4 = alloca i32, align 4
  %5 = alloca ptr, align 8
  %6 = alloca i64, align 8
  %7 = alloca ptr, align 8
  %8 = alloca ptr, align 8
  %9 = alloca i32, align 4
  store ptr %0, ptr %5, align 8, !tbaa !156
  store i64 %1, ptr %6, align 8, !tbaa !34
  store ptr %2, ptr %7, align 8, !tbaa !3
  call void @llvm.lifetime.start.p0(i64 8, ptr %8) #10
  %10 = load i64, ptr %6, align 8, !tbaa !34
  %11 = load ptr, ptr %5, align 8, !tbaa !156
  %12 = getelementptr inbounds nuw %struct.UnpicklerObject, ptr %11, i32 0, i32 3
  %13 = load i64, ptr %12, align 8, !tbaa !162
  %14 = icmp uge i64 %10, %13
  br i1 %14, label %15, label %23

15:                                               ; preds = %3
  %16 = load ptr, ptr %5, align 8, !tbaa !156
  %17 = load i64, ptr %6, align 8, !tbaa !34
  %18 = mul i64 %17, 2
  %19 = call i32 @_Unpickler_ResizeMemoList(ptr noundef %16, i64 noundef %18)
  %20 = icmp slt i32 %19, 0
  br i1 %20, label %21, label %22

21:                                               ; preds = %15
  store i32 -1, ptr %4, align 4
  store i32 1, ptr %9, align 4
  br label %47

22:                                               ; preds = %15
  br label %23

23:                                               ; preds = %22, %3
  %24 = load ptr, ptr %5, align 8, !tbaa !156
  %25 = getelementptr inbounds nuw %struct.UnpicklerObject, ptr %24, i32 0, i32 2
  %26 = load ptr, ptr %25, align 8, !tbaa !161
  %27 = load i64, ptr %6, align 8, !tbaa !34
  %28 = getelementptr ptr, ptr %26, i64 %27
  %29 = load ptr, ptr %28, align 8, !tbaa !3
  store ptr %29, ptr %8, align 8, !tbaa !3
  %30 = load ptr, ptr %7, align 8, !tbaa !3
  %31 = call ptr @_Py_NewRef(ptr noundef %30)
  %32 = load ptr, ptr %5, align 8, !tbaa !156
  %33 = getelementptr inbounds nuw %struct.UnpicklerObject, ptr %32, i32 0, i32 2
  %34 = load ptr, ptr %33, align 8, !tbaa !161
  %35 = load i64, ptr %6, align 8, !tbaa !34
  %36 = getelementptr ptr, ptr %34, i64 %35
  store ptr %31, ptr %36, align 8, !tbaa !3
  %37 = load ptr, ptr %8, align 8, !tbaa !3
  %38 = icmp ne ptr %37, null
  br i1 %38, label %39, label %41

39:                                               ; preds = %23
  %40 = load ptr, ptr %8, align 8, !tbaa !3
  call void @Py_DECREF(ptr noundef %40)
  br label %46

41:                                               ; preds = %23
  %42 = load ptr, ptr %5, align 8, !tbaa !156
  %43 = getelementptr inbounds nuw %struct.UnpicklerObject, ptr %42, i32 0, i32 4
  %44 = load i64, ptr %43, align 8, !tbaa !163
  %45 = add i64 %44, 1
  store i64 %45, ptr %43, align 8, !tbaa !163
  br label %46

46:                                               ; preds = %41, %39
  store i32 0, ptr %4, align 4
  store i32 1, ptr %9, align 4
  br label %47

47:                                               ; preds = %46, %21
  call void @llvm.lifetime.end.p0(i64 8, ptr %8) #10
  %48 = load i32, ptr %4, align 4
  ret i32 %48
}