; Function Attrs: nounwind uwtable
define internal fastcc range(i32 -1, 1) i32 @_Unpickler_MemoPut(ptr noundef captures(none) %0, i64 noundef %1, ptr noundef %2) unnamed_addr #0 {
  %4 = getelementptr inbounds nuw i8, ptr %0, i64 32
  %5 = load i64, ptr %4, align 8, !tbaa !162
  %.not = icmp ult i64 %1, %5
  br i1 %.not, label %._crit_edge, label %6

._crit_edge:                                      ; preds = %3
  %.phi.trans.insert = getelementptr inbounds nuw i8, ptr %0, i64 24
  %.pre = load ptr, ptr %.phi.trans.insert, align 8, !tbaa !161
  br label %21

6:                                                ; preds = %3
  %7 = shl i64 %1, 1
  %8 = getelementptr inbounds nuw i8, ptr %0, i64 24
  %9 = icmp ugt i64 %7, 1152921504606846975
  br i1 %9, label %_Unpickler_ResizeMemoList.exit.thread, label %10

10:                                               ; preds = %6
  %11 = load ptr, ptr %8, align 8, !tbaa !161
  %12 = shl i64 %1, 4
  %13 = tail call ptr @PyMem_Realloc(ptr noundef %11, i64 noundef %12) #13
  %14 = icmp eq ptr %13, null
  br i1 %14, label %_Unpickler_ResizeMemoList.exit.thread, label %16

_Unpickler_ResizeMemoList.exit.thread:            ; preds = %6, %10
  %15 = tail call ptr @PyErr_NoMemory() #13
  br label %Py_DECREF.exit

16:                                               ; preds = %10
  store ptr %13, ptr %8, align 8, !tbaa !161
  %17 = load i64, ptr %4, align 8, !tbaa !162
  %18 = icmp ult i64 %17, %7
  br i1 %18, label %.lr.ph.preheader.i, label %_Unpickler_ResizeMemoList.exit

.lr.ph.preheader.i:                               ; preds = %16
  %19 = shl nuw nsw i64 %17, 3
  %scevgep.i = getelementptr i8, ptr %13, i64 %19
  %20 = sub nsw i64 %12, %19
  tail call void @llvm.memset.p0.i64(ptr align 8 %scevgep.i, i8 0, i64 %20, i1 false), !tbaa !35
  br label %_Unpickler_ResizeMemoList.exit

_Unpickler_ResizeMemoList.exit:                   ; preds = %16, %.lr.ph.preheader.i
  store i64 %7, ptr %4, align 8, !tbaa !162
  br label %21

21:                                               ; preds = %._crit_edge, %_Unpickler_ResizeMemoList.exit
  %22 = phi ptr [ %.pre, %._crit_edge ], [ %13, %_Unpickler_ResizeMemoList.exit ]
  %23 = getelementptr ptr, ptr %22, i64 %1
  %24 = load ptr, ptr %23, align 8, !tbaa !35
  %25 = load i32, ptr %2, align 8, !tbaa !42
  %26 = icmp slt i32 %25, 0
  br i1 %26, label %_Py_NewRef.exit, label %27

27:                                               ; preds = %21
  %28 = getelementptr inbounds nuw i8, ptr %0, i64 24
  %29 = add nuw i32 %25, 1
  store i32 %29, ptr %2, align 8, !tbaa !42
  %.pre16 = load ptr, ptr %28, align 8, !tbaa !161
  br label %_Py_NewRef.exit

_Py_NewRef.exit:                                  ; preds = %21, %27
  %30 = phi ptr [ %22, %21 ], [ %.pre16, %27 ]
  %31 = getelementptr ptr, ptr %30, i64 %1
  store ptr %2, ptr %31, align 8, !tbaa !35
  %.not14 = icmp eq ptr %24, null
  br i1 %.not14, label %38, label %32

32:                                               ; preds = %_Py_NewRef.exit
  %33 = load i32, ptr %24, align 8, !tbaa !42
  %.not.i = icmp sgt i32 %33, -1
  br i1 %.not.i, label %34, label %Py_DECREF.exit

34:                                               ; preds = %32
  %35 = add nsw i32 %33, -1
  store i32 %35, ptr %24, align 8, !tbaa !42
  %36 = icmp eq i32 %35, 0
  br i1 %36, label %37, label %Py_DECREF.exit

37:                                               ; preds = %34
  tail call void @_Py_Dealloc(ptr noundef nonnull %24) #13
  br label %Py_DECREF.exit

38:                                               ; preds = %_Py_NewRef.exit
  %39 = getelementptr inbounds nuw i8, ptr %0, i64 40
  %40 = load i64, ptr %39, align 8, !tbaa !179
  %41 = add i64 %40, 1
  store i64 %41, ptr %39, align 8, !tbaa !179
  br label %Py_DECREF.exit

Py_DECREF.exit:                                   ; preds = %37, %34, %32, %_Unpickler_ResizeMemoList.exit.thread, %38
  %.0 = phi i32 [ 0, %38 ], [ -1, %_Unpickler_ResizeMemoList.exit.thread ], [ 0, %32 ], [ 0, %34 ], [ 0, %37 ]
  ret i32 %.0
}